target datalayout = "e-m:e-p270:32:32-p271:32:32-p272:64:64-i64:64-i128:128-f80:128-n8:16:32:64-S128"
target triple = "x86_64-pc-linux-gnu"

%class.QFlags = type { i32 }
%class.CongratsDialog = type { %class.QDialog, ptr }
%class.QDialog = type { %class.QWidget }
%class.QWidget = type { %class.QObject, %class.QPaintDevice, ptr }
%class.QObject = type { ptr, %class.QScopedPointer }
%class.QScopedPointer = type { ptr }
%class.QPaintDevice = type { ptr, i16, ptr }

@_ZTV14CongratsDialog = external unnamed_addr constant { [59 x ptr], [10 x ptr] }, align 8

; Function Attrs: mustprogress nounwind uwtable
define linkonce_odr void @_ZN6QFlagsIN2Qt10WindowTypeEEC2Ev(ptr noundef nonnull align 4 dereferenceable(4) %0) unnamed_addr #4 comdat align 2 {
  %2 = alloca ptr, align 8
  store ptr %0, ptr %2, align 8
  %3 = load ptr, ptr %2, align 8
  %4 = getelementptr inbounds %class.QFlags, ptr %3, i32 0, i32 0
  store i32 0, ptr %4, align 4
  ret void
}

; Function Attrs: mustprogress uwtable
define void @_ZN14CongratsDialogC2EP7QWidget(ptr noundef nonnull align 8 dereferenceable(56) %0, ptr noundef %1) unnamed_addr #5 align 2 personality ptr @__gxx_personality_v0 {
  %3 = alloca ptr, align 8
  %4 = alloca ptr, align 8
  %5 = alloca %class.QFlags, align 4
  %6 = alloca ptr, align 8
  %7 = alloca i32, align 4
  store ptr %0, ptr %3, align 8
  store ptr %1, ptr %4, align 8
  %8 = load ptr, ptr %3, align 8
  %9 = load ptr, ptr %4, align 8
  call void @_ZN6QFlagsIN2Qt10WindowTypeEEC2Ev(ptr noundef nonnull align 4 dereferenceable(4) %5) #3
  %10 = getelementptr inbounds %class.QFlags, ptr %5, i32 0, i32 0
  %11 = load i32, ptr %10, align 4
  call void @_ZN7QDialogC2EP7QWidget6QFlagsIN2Qt10WindowTypeEE(ptr noundef nonnull align 8 dereferenceable(48) %8, ptr noundef %9, i32 %11)
  store ptr getelementptr inbounds ({ [59 x ptr], [10 x ptr] }, ptr @_ZTV14CongratsDialog, i32 0, i32 0, i32 2), ptr %8, align 8
  %12 = getelementptr inbounds i8, ptr %8, i64 16
  store ptr getelementptr inbounds ({ [59 x ptr], [10 x ptr] }, ptr @_ZTV14CongratsDialog, i32 0, i32 1, i32 2), ptr %12, align 8
  %13 = getelementptr inbounds %class.CongratsDialog, ptr %8, i32 0, i32 1
  %14 = invoke noalias noundef nonnull ptr @_Znwm(i64 noundef 56) #13
          to label %15 unwind label %19

15:                                               ; preds = %2
  store ptr %14, ptr %13, align 8
  %16 = getelementptr inbounds %class.CongratsDialog, ptr %8, i32 0, i32 1
  %17 = load ptr, ptr %16, align 8
  invoke void @_ZN17Ui_CongratsDialog7setupUiEP7QDialog(ptr noundef nonnull align 8 dereferenceable(56) %17, ptr noundef %8)
          to label %18 unwind label %19

18:                                               ; preds = %15
  ret void

19:                                               ; preds = %15, %2
  %20 = landingpad { ptr, i32 }
          cleanup
  %21 = extractvalue { ptr, i32 } %20, 0
  store ptr %21, ptr %6, align 8
  %22 = extractvalue { ptr, i32 } %20, 1
  store i32 %22, ptr %7, align 4
  call void @_ZN7QDialogD2Ev(ptr noundef nonnull align 8 dereferenceable(48) %8) #3
  br label %23

23:                                               ; preds = %19
  %24 = load ptr, ptr %6, align 8
  %25 = load i32, ptr %7, align 4
  %26 = insertvalue { ptr, i32 } poison, ptr %24, 0
  %27 = insertvalue { ptr, i32 } %26, i32 %25, 1
  resume { ptr, i32 } %27
}