; Function Attrs: mustprogress uwtable
define void @_ZN14CongratsDialogC2EP7QWidget(ptr noundef nonnull align 8 dereferenceable(56) %0, ptr noundef %1) unnamed_addr #3 align 2 personality ptr @__gxx_personality_v0 {
  tail call void @_ZN7QDialogC2EP7QWidget6QFlagsIN2Qt10WindowTypeEE(ptr noundef nonnull align 8 dereferenceable(48) %0, ptr noundef %1, i32 0)
  store ptr getelementptr inbounds ({ [59 x ptr], [10 x ptr] }, ptr @_ZTV14CongratsDialog, i64 0, i32 0, i64 2), ptr %0, align 8
  %3 = getelementptr inbounds i8, ptr %0, i64 16
  store ptr getelementptr inbounds ({ [59 x ptr], [10 x ptr] }, ptr @_ZTV14CongratsDialog, i64 0, i32 1, i64 2), ptr %3, align 8
  %4 = invoke noalias noundef nonnull dereferenceable(56) ptr @_Znwm(i64 noundef 56) #10
          to label %5 unwind label %8

5:                                                ; preds = %2
  %6 = getelementptr inbounds i8, ptr %0, i64 48
  store ptr %4, ptr %6, align 8
  invoke void @_ZN17Ui_CongratsDialog7setupUiEP7QDialog(ptr noundef nonnull align 8 dereferenceable(56) %4, ptr noundef nonnull %0)
          to label %7 unwind label %8

7:                                                ; preds = %5
  ret void

8:                                                ; preds = %5, %2
  %9 = landingpad { ptr, i32 }
          cleanup
  tail call void @_ZN7QDialogD2Ev(ptr noundef nonnull align 8 dereferenceable(48) %0) #11
  resume { ptr, i32 } %9
}